; Function Attrs: mustprogress nounwind uwtable
define dso_local void @_ZN4llvm11SubRegRangeC2EPNS_6RecordE(ptr nocapture noundef nonnull writeonly align 2 dereferenceable(4) %0, ptr noundef nonnull %1) unnamed_addr #0 align 2 {
  %3 = tail call noundef i64 @_ZNK4llvm6Record13getValueAsIntENS_9StringRefE(ptr noundef nonnull align 8 dereferenceable(192) %1, ptr nonnull @.str.12, i64 4) #15
  %4 = trunc i64 %3 to i16
  store i16 %4, ptr %0, align 2
  %5 = tail call noundef i64 @_ZNK4llvm6Record13getValueAsIntENS_9StringRefE(ptr noundef nonnull align 8 dereferenceable(192) %1, ptr nonnull @.str.13, i64 6) #15
  %6 = trunc i64 %5 to i16
  %7 = getelementptr inbounds nuw i8, ptr %0, i64 2
  store i16 %6, ptr %7, align 2
  ret void
}